
laRNG.elf:     file format elf32-littleriscv


Disassembly of section .text:

10000000 <_ftext>:
10000000:	40000113          	li	sp,1024
10000004:	00000517          	auipc	a0,0x0
10000008:	06050513          	addi	a0,a0,96 # 10000064 <irq_handler>
1000000c:	30551073          	csrw	mtvec,a0

10000010 <data_init>:
10000010:	00000513          	li	a0,0
10000014:	00000593          	li	a1,0
10000018:	00000617          	auipc	a2,0x0
1000001c:	1e860613          	addi	a2,a2,488 # 10000200 <_etext>

10000020 <data_loop>:
10000020:	00b50c63          	beq	a0,a1,10000038 <bss_init>
10000024:	00062683          	lw	a3,0(a2)
10000028:	00d52023          	sw	a3,0(a0)
1000002c:	00450513          	addi	a0,a0,4
10000030:	00460613          	addi	a2,a2,4
10000034:	fedff06f          	j	10000020 <data_loop>

10000038 <bss_init>:
10000038:	00000513          	li	a0,0
1000003c:	00000593          	li	a1,0

10000040 <bss_loop>:
10000040:	00b50863          	beq	a0,a1,10000050 <bss_done>
10000044:	00052023          	sw	zero,0(a0)
10000048:	00450513          	addi	a0,a0,4
1000004c:	ff5ff06f          	j	10000040 <bss_loop>

10000050 <bss_done>:
10000050:	00001537          	lui	a0,0x1
10000054:	88050513          	addi	a0,a0,-1920 # 880 <_fstack+0x480>
10000058:	30451073          	csrw	mie,a0
1000005c:	050000ef          	jal	ra,100000ac <main>

10000060 <infinite_loop>:
10000060:	0000006f          	j	10000060 <infinite_loop>

10000064 <irq_handler>:
10000064:	ff010113          	addi	sp,sp,-16
10000068:	00e12623          	sw	a4,12(sp)
1000006c:	00f12423          	sw	a5,8(sp)
10000070:	34202773          	csrr	a4,mcause
10000074:	02075063          	bgez	a4,10000094 <irq_handler+0x30>
10000078:	800007b7          	lui	a5,0x80000
1000007c:	00b78793          	addi	a5,a5,11 # 8000000b <_etext+0x6ffffe0b>
10000080:	00f70c63          	beq	a4,a5,10000098 <irq_handler+0x34>
10000084:	00c12703          	lw	a4,12(sp)
10000088:	00812783          	lw	a5,8(sp)
1000008c:	01010113          	addi	sp,sp,16
10000090:	30200073          	mret
10000094:	0000006f          	j	10000094 <irq_handler+0x30>
10000098:	fc0027f3          	csrr	a5,0xfc0
1000009c:	00c12703          	lw	a4,12(sp)
100000a0:	00812783          	lw	a5,8(sp)
100000a4:	01010113          	addi	sp,sp,16
100000a8:	30200073          	mret

100000ac <main>:
100000ac:	00100613          	li	a2,1
100000b0:	00002737          	lui	a4,0x2
100000b4:	f00046b7          	lui	a3,0xf0004
100000b8:	260007b7          	lui	a5,0x26000
100000bc:	80c6a023          	sw	a2,-2048(a3) # f0003800 <_etext+0xe0003600>
100000c0:	80970693          	addi	a3,a4,-2039 # 1809 <_fstack+0x1409>
100000c4:	0ad7a023          	sw	a3,160(a5) # 260000a0 <_etext+0x15fffea0>
100000c8:	08d7ae23          	sw	a3,156(a5)
100000cc:	08d7ac23          	sw	a3,152(a5)
100000d0:	08d7aa23          	sw	a3,148(a5)
100000d4:	08d7a823          	sw	a3,144(a5)
100000d8:	08d7a623          	sw	a3,140(a5)
100000dc:	08d7a423          	sw	a3,136(a5)
100000e0:	08d7a223          	sw	a3,132(a5)
100000e4:	08d7a023          	sw	a3,128(a5)
100000e8:	06d7ae23          	sw	a3,124(a5)
100000ec:	06d7ac23          	sw	a3,120(a5)
100000f0:	06d7aa23          	sw	a3,116(a5)
100000f4:	06d7a823          	sw	a3,112(a5)
100000f8:	06d7a623          	sw	a3,108(a5)
100000fc:	06d7a423          	sw	a3,104(a5)
10000100:	06d7a223          	sw	a3,100(a5)
10000104:	80870713          	addi	a4,a4,-2040
10000108:	06e7a023          	sw	a4,96(a5)
1000010c:	04e7ae23          	sw	a4,92(a5)
10000110:	04e7ac23          	sw	a4,88(a5)
10000114:	04e7aa23          	sw	a4,84(a5)
10000118:	04e7a823          	sw	a4,80(a5)
1000011c:	04e7a623          	sw	a4,76(a5)
10000120:	04e7a423          	sw	a4,72(a5)
10000124:	04e7a223          	sw	a4,68(a5)
10000128:	04e7a023          	sw	a4,64(a5)
1000012c:	02e7ac23          	sw	a4,56(a5)
10000130:	02e7aa23          	sw	a4,52(a5)
10000134:	02e7a823          	sw	a4,48(a5)
10000138:	02e7a623          	sw	a4,44(a5)
1000013c:	02e7a423          	sw	a4,40(a5)
10000140:	02e7a223          	sw	a4,36(a5)
10000144:	02d7ae23          	sw	a3,60(a5)
10000148:	ff010113          	addi	sp,sp,-16
1000014c:	260006b7          	lui	a3,0x26000
10000150:	00c7a023          	sw	a2,0(a5)
10000154:	00100713          	li	a4,1
10000158:	0006a783          	lw	a5,0(a3) # 26000000 <_etext+0x15fffe00>
1000015c:	fee78ee3          	beq	a5,a4,10000158 <main+0xac>
10000160:	300007b7          	lui	a5,0x30000
10000164:	00500713          	li	a4,5
10000168:	10e7a023          	sw	a4,256(a5) # 30000100 <_etext+0x1fffff00>
1000016c:	300017b7          	lui	a5,0x30001
10000170:	0007a703          	lw	a4,0(a5) # 30001000 <_etext+0x20000e00>
10000174:	00e12623          	sw	a4,12(sp)
10000178:	0007a703          	lw	a4,0(a5)
1000017c:	00e12423          	sw	a4,8(sp)
10000180:	0007a703          	lw	a4,0(a5)
10000184:	00e12623          	sw	a4,12(sp)
10000188:	0007a703          	lw	a4,0(a5)
1000018c:	00e12423          	sw	a4,8(sp)
10000190:	0007a703          	lw	a4,0(a5)
10000194:	00e12623          	sw	a4,12(sp)
10000198:	0007a703          	lw	a4,0(a5)
1000019c:	00e12423          	sw	a4,8(sp)
100001a0:	0007a703          	lw	a4,0(a5)
100001a4:	00e12623          	sw	a4,12(sp)
100001a8:	0007a703          	lw	a4,0(a5)
100001ac:	00e12423          	sw	a4,8(sp)
100001b0:	0007a703          	lw	a4,0(a5)
100001b4:	00e12623          	sw	a4,12(sp)
100001b8:	0007a703          	lw	a4,0(a5)
100001bc:	00e12423          	sw	a4,8(sp)
100001c0:	0007a703          	lw	a4,0(a5)
100001c4:	00e12423          	sw	a4,8(sp)
100001c8:	0007a783          	lw	a5,0(a5)
100001cc:	01010113          	addi	sp,sp,16
100001d0:	00008067          	ret
	...
